target datalayout = "e-m:e-p270:32:32-p271:32:32-p272:64:64-i64:64-i128:128-f80:128-n8:16:32:64-S128"
target triple = "x86_64-pc-linux-gnu"

%"class.llvm::ArrayRef" = type { ptr, i64 }
%"class.llvm::ArrayRef.354" = type { ptr, i64 }
%"class.clang::SourceLocation" = type { i32 }
%"class.clang::ParsedAttr" = type { %"class.clang::AttributeCommonInfo", ptr, %"class.clang::SourceLocation", %"class.clang::SourceLocation", i32, %"class.clang::SourceLocation", ptr, ptr }
%"class.clang::AttributeCommonInfo" = type { ptr, ptr, %"class.clang::SourceRange", %"class.clang::SourceLocation", i32 }
%"class.clang::SourceRange" = type { %"class.clang::SourceLocation", %"class.clang::SourceLocation" }
%"struct.clang::ParsedAttrInfo" = type { ptr, i64, %"class.llvm::ArrayRef", %"class.llvm::ArrayRef.354" }

; Function Attrs: mustprogress nounwind uwtable
define linkonce_odr hidden noundef nonnull align 8 dereferenceable(48) ptr @_ZNK5clang10ParsedAttr7getInfoEv(ptr noundef nonnull align 8 dereferenceable(72) %0) #0 comdat align 2 {
  %2 = alloca ptr, align 8
  store ptr %0, ptr %2, align 8
  %3 = load ptr, ptr %2, align 8
  %4 = getelementptr inbounds nuw %"class.clang::ParsedAttr", ptr %3, i32 0, i32 7
  %5 = load ptr, ptr %4, align 8
  ret ptr %5
}

; Function Attrs: mustprogress nounwind uwtable
define dso_local noundef i32 @_ZNK5clang10ParsedAttr10getMinArgsEv(ptr noundef nonnull align 8 dereferenceable(72) %0) #0 align 2 {
  %2 = alloca ptr, align 8
  store ptr %0, ptr %2, align 8
  %3 = load ptr, ptr %2, align 8
  %4 = call noundef nonnull align 8 dereferenceable(48) ptr @_ZNK5clang10ParsedAttr7getInfoEv(ptr noundef nonnull align 8 dereferenceable(72) %3)
  %5 = getelementptr inbounds nuw %"struct.clang::ParsedAttrInfo", ptr %4, i32 0, i32 1
  %6 = load i64, ptr %5, align 8
  %7 = lshr i64 %6, 16
  %8 = and i64 %7, 15
  %9 = trunc i64 %8 to i32
  ret i32 %9
}